; Function Attrs: mustprogress nounwind uwtable
define dso_local void @_ZNK4llvm22CheckComplexPatMatcher9printImplERNS_11raw_ostreamEj(ptr nocapture noundef nonnull readonly align 8 dereferenceable(84) %0, ptr noundef nonnull align 8 dereferenceable(48) %1, i32 noundef %2) unnamed_addr #1 align 2 {
  %4 = tail call noundef nonnull align 8 dereferenceable(48) ptr @_ZN4llvm11raw_ostream6indentEj(ptr noundef nonnull align 8 dereferenceable(48) %1, i32 noundef %2) #13
  %5 = getelementptr inbounds nuw i8, ptr %4, i64 24
  %6 = load ptr, ptr %5, align 8
  %7 = getelementptr inbounds nuw i8, ptr %4, i64 32
  %8 = load ptr, ptr %7, align 8
  %9 = ptrtoint ptr %6 to i64
  %10 = ptrtoint ptr %8 to i64
  %11 = sub i64 %9, %10
  %12 = icmp ult i64 %11, 16
  br i1 %12, label %13, label %15

13:                                               ; preds = %3
  %14 = tail call noundef nonnull align 8 dereferenceable(48) ptr @_ZN4llvm11raw_ostream5writeEPKcm(ptr noundef nonnull align 8 dereferenceable(48) %4, ptr noundef nonnull @.str.29, i64 noundef 16) #13
  br label %_ZN4llvm11raw_ostreamlsEPKc.exit

15:                                               ; preds = %3
  tail call void @llvm.memcpy.p0.p0.i64(ptr noundef nonnull align 1 dereferenceable(16) %8, ptr noundef nonnull align 1 dereferenceable(16) @.str.29, i64 16, i1 false)
  %16 = load ptr, ptr %7, align 8
  %17 = getelementptr inbounds i8, ptr %16, i64 16
  store ptr %17, ptr %7, align 8
  br label %_ZN4llvm11raw_ostreamlsEPKc.exit

_ZN4llvm11raw_ostreamlsEPKc.exit:                 ; preds = %13, %15
  %.0.i.i = phi ptr [ %14, %13 ], [ %4, %15 ]
  %18 = getelementptr inbounds nuw i8, ptr %0, i64 32
  %19 = load ptr, ptr %18, align 8
  %20 = getelementptr inbounds nuw i8, ptr %19, i64 16
  %21 = tail call noundef ptr @_ZNKSt7__cxx1112basic_stringIcSt11char_traitsIcESaIcEE4dataEv(ptr noundef nonnull align 8 dereferenceable(32) %20) #13
  %22 = tail call noundef i64 @_ZNKSt7__cxx1112basic_stringIcSt11char_traitsIcESaIcEE6lengthEv(ptr noundef nonnull align 8 dereferenceable(32) %20) #13
  %23 = tail call noundef nonnull align 8 dereferenceable(48) ptr @_ZN4llvm11raw_ostream5writeEPKcm(ptr noundef nonnull align 8 dereferenceable(48) %.0.i.i, ptr noundef %21, i64 noundef %22) #13
  %24 = getelementptr inbounds nuw i8, ptr %23, i64 32
  %25 = load ptr, ptr %24, align 8
  %26 = getelementptr inbounds nuw i8, ptr %23, i64 24
  %27 = load ptr, ptr %26, align 8
  %.not.i = icmp ult ptr %25, %27
  br i1 %.not.i, label %30, label %28

28:                                               ; preds = %_ZN4llvm11raw_ostreamlsEPKc.exit
  %29 = tail call noundef nonnull align 8 dereferenceable(48) ptr @_ZN4llvm11raw_ostream5writeEh(ptr noundef nonnull align 8 dereferenceable(48) %23, i8 noundef zeroext 10) #13
  br label %_ZN4llvm11raw_ostreamlsEc.exit

30:                                               ; preds = %_ZN4llvm11raw_ostreamlsEPKc.exit
  %31 = getelementptr inbounds i8, ptr %25, i64 1
  store ptr %31, ptr %24, align 8
  store i8 10, ptr %25, align 1
  br label %_ZN4llvm11raw_ostreamlsEc.exit

_ZN4llvm11raw_ostreamlsEc.exit:                   ; preds = %28, %30
  ret void
}